(dp0
VversionCode
p1
V40
p2
sVversionName
p3
V1.4.0
p4
sVpackingTime
p5
V2018-08-19 19:14:36
p6
sVsum
p7
L1L
sVpass
p8
L1L
sVfail
p9
L0L
sVtestDate
p10
V2018-08-19 19:15:31
p11
sVtestSumDate
p12
V49\u79d2
p13
s.