(dp0
VversionCode
p1
V302030
p2
sVversionName
p3
VV3.2.3
p4
sVpackingTime
p5
V2018-09-01 22:40:03
p6
sVsum
p7
L21L
sVpass
p8
L21L
sVfail
p9
L0L
sVtestDate
p10
V2018-09-01 22:47:53
p11
sVtestSumDate
p12
V466\u79d2
p13
s.