(dp0
VversionCode
p1
V302030
p2
sVversionName
p3
VV3.2.3
p4
sVpackingTime
p5
V2018-09-25 16:13:11
p6
sVsum
p7
I1
sVpass
p8
I1
sVfail
p9
I0
sVtestDate
p10
V2018-09-25 16:14:24
p11
sVtestSumDate
p12
V69\u79d2
p13
s.