(dp0
VversionCode
p1
V302030
p2
sVversionName
p3
VV3.2.3
p4
sVpackingTime
p5
V2018-09-09 19:49:28
p6
sVsum
p7
L1L
sVpass
p8
L1L
sVfail
p9
L0L
sVtestDate
p10
V2018-09-09 19:50:19
p11
sVtestSumDate
p12
V41\u79d2
p13
s.