(dp0
VversionCode
p1
V302030
p2
sVversionName
p3
VV3.2.3
p4
sVpackingTime
p5
V2018-09-09 20:51:08
p6
sVsum
p7
L2L
sVpass
p8
L2L
sVfail
p9
L0L
sVtestDate
p10
V2018-09-09 20:51:59
p11
sVtestSumDate
p12
V47\u79d2
p13
s.