(dp0
VversionCode
p1
V40
p2
sVversionName
p3
V1.4.0
p4
sVpackingTime
p5
V2018-08-19 20:39:04
p6
sVsum
p7
L2L
sVpass
p8
L2L
sVfail
p9
L0L
sVtestDate
p10
V2018-08-19 20:39:55
p11
sVtestSumDate
p12
V46\u79d2
p13
s.