(dp0
VversionCode
p1
V302010
p2
sVversionName
p3
VV3.2.1
p4
sVpackingTime
p5
V2018-08-24 11:42:28
p6
sVsum
p7
I7
sVpass
p8
I7
sVfail
p9
I0
sVtestDate
p10
V2018-08-24 11:47:26
p11
sVtestSumDate
p12
V257\u79d2
p13
s.