(dp0
VversionCode
p1
V40
p2
sVversionName
p3
V1.4.0
p4
sVpackingTime
p5
V2018-08-17 17:31:19
p6
sVsum
p7
I0
sVpass
p8
I0
sVfail
p9
I0
sVtestDate
p10
V2018-08-17 17:31:31
p11
sVtestSumDate
p12
V7\u79d2
p13
s.