(dp0
VversionCode
p1
V40
p2
sVversionName
p3
V1.4.0
p4
sVpackingTime
p5
V2017/12/4 13:00
p6
sVsum
p7
I2
sVpass
p8
I2
sVfail
p9
I0
sVtestDate
p10
V2018-07-23 11:16:27
p11
sVtestSumDate
p12
V55\u79d2
p13
s.