(dp0
VversionCode
p1
V302030
p2
sVversionName
p3
VV3.2.3
p4
sVpackingTime
p5
V2018-09-02 22:00:28
p6
sVsum
p7
L12L
sVpass
p8
L11L
sVfail
p9
L1L
sVtestDate
p10
V2018-09-02 22:06:36
p11
sVtestSumDate
p12
V363\u79d2
p13
s.