(dp0
VversionCode
p1
V302030
p2
sVversionName
p3
VV3.2.3
p4
sVpackingTime
p5
V2018-09-21 10:24:59
p6
sVsum
p7
I1
sVpass
p8
I1
sVfail
p9
I0
sVtestDate
p10
V2018-09-21 10:26:53
p11
sVtestSumDate
p12
V110\u79d2
p13
s.