(dp0
VversionCode
p1
V302030
p2
sVversionName
p3
VV3.2.3
p4
sVpackingTime
p5
V2018-08-27 20:02:33
p6
sVsum
p7
I2
sVpass
p8
I2
sVfail
p9
I0
sVtestDate
p10
V2018-08-27 20:03:44
p11
sVtestSumDate
p12
V67\u79d2
p13
s.